target datalayout = "e-m:e-p270:32:32-p271:32:32-p272:64:64-i64:64-i128:128-f80:128-n8:16:32:64-S128"
target triple = "x86_64-pc-linux-gnu"

%struct.mbedtls_ssl_context = type { ptr, i32, i32, i32, i32, i32, ptr, ptr, ptr, ptr, ptr, ptr, ptr, ptr, ptr, ptr, ptr, ptr, ptr, ptr, ptr, ptr, ptr, ptr, ptr, ptr, ptr, ptr, ptr, ptr, ptr, ptr, ptr, i32, i64, i64, i16, i64, i64, i64, i64, i32, i32, i8, i8, i32, i8, ptr, ptr, ptr, ptr, ptr, ptr, ptr, i32, i64, i64, [8 x i8], i16, ptr, ptr, ptr, i64, i32, i64, [12 x i8], [12 x i8], [32 x i8], i8, i8, ptr, ptr, %union.mbedtls_ssl_user_data_t }
%union.mbedtls_ssl_user_data_t = type { i64 }
%struct.mbedtls_mpi = type { ptr, i16, i16 }
%struct.mbedtls_ssl_handshake_params = type { i8, i8, i8, i8, i8, i32, i8, i8, i8, i8, ptr, ptr, ptr, ptr, ptr, i8, i8, i8, i8, i16, i16, [20 x i16], ptr, ptr, %struct.mbedtls_dhm_context, %struct.mbedtls_ecdh_context, i16, i64, i32, i8, [1024 x i8], i64, ptr, ptr, i64, i16, ptr, ptr, ptr, ptr, %struct.anon, ptr, i16, i8, i32, i32, i32, ptr, ptr, ptr, i32, ptr, [8 x i8], i8, [32 x i8], i8, i16, %struct.mbedtls_md_context_t, %struct.mbedtls_md_context_t, i16, i8, %union.anon.1, [64 x i8], [1076 x i8], i64, i32, i32, i8, ptr, ptr, %union.anon.4, %struct.mbedtls_ssl_tls13_handshake_secrets, ptr, i64, ptr }
%struct.mbedtls_dhm_context = type { %struct.mbedtls_mpi, %struct.mbedtls_mpi, %struct.mbedtls_mpi, %struct.mbedtls_mpi, %struct.mbedtls_mpi, %struct.mbedtls_mpi, %struct.mbedtls_mpi, %struct.mbedtls_mpi, %struct.mbedtls_mpi, %struct.mbedtls_mpi }
%struct.mbedtls_ecdh_context = type { i8, i32, i32, %union.anon }
%union.anon = type { %struct.mbedtls_ecdh_context_mbed }
%struct.mbedtls_ecdh_context_mbed = type { %struct.mbedtls_ecp_group, %struct.mbedtls_mpi, %struct.mbedtls_ecp_point, %struct.mbedtls_ecp_point, %struct.mbedtls_mpi }
%struct.mbedtls_ecp_group = type { i32, %struct.mbedtls_mpi, %struct.mbedtls_mpi, %struct.mbedtls_mpi, %struct.mbedtls_ecp_point, %struct.mbedtls_mpi, i64, i64, i32, ptr, ptr, ptr, ptr, ptr, i64 }
%struct.mbedtls_ecp_point = type { %struct.mbedtls_mpi, %struct.mbedtls_mpi, %struct.mbedtls_mpi }
%struct.anon = type { i64, i8, [4 x %struct.mbedtls_ssl_hs_buffer], %struct.anon.0 }
%struct.mbedtls_ssl_hs_buffer = type { i8, ptr, i64 }
%struct.anon.0 = type { ptr, i64, i32 }
%struct.mbedtls_md_context_t = type { ptr, ptr, ptr }
%union.anon.1 = type { %struct.anon.2 }
%struct.anon.2 = type { i8, [64 x i8], i64 }
%union.anon.4 = type { [64 x i8] }
%struct.mbedtls_ssl_tls13_handshake_secrets = type { [64 x i8], [64 x i8] }

@.str = private unnamed_addr constant [124 x i8] c"generated/home/dtcxzyw/WorkSpace/Projects/compilers/llvm-opt-benchmark/bench/lief/bench_build/mbed_src/library/ssl_client.c\00", align 1
@.str.20 = private unnamed_addr constant [47 x i8] c"client hello, adding server name extension: %s\00", align 1

; Function Attrs: inlinehint nounwind uwtable
define internal void @mbedtls_ssl_tls13_set_hs_sent_ext_mask(ptr noundef %0, i32 noundef %1) #3 {
  %3 = alloca ptr, align 8
  %4 = alloca i32, align 4
  store ptr %0, ptr %3, align 8, !tbaa !3
  store i32 %1, ptr %4, align 4, !tbaa !8
  %5 = load i32, ptr %4, align 4, !tbaa !8
  %6 = call i32 @mbedtls_ssl_get_extension_mask(i32 noundef %5)
  %7 = load ptr, ptr %3, align 8, !tbaa !3
  %8 = getelementptr inbounds nuw %struct.mbedtls_ssl_context, ptr %7, i32 0, i32 16
  %9 = load ptr, ptr %8, align 8, !tbaa !34
  %10 = getelementptr inbounds nuw %struct.mbedtls_ssl_handshake_params, ptr %9, i32 0, i32 65
  %11 = load i32, ptr %10, align 8, !tbaa !48
  %12 = or i32 %11, %6
  store i32 %12, ptr %10, align 8, !tbaa !48
  ret void
}

; Function Attrs: alwaysinline nounwind uwtable
define internal void @mbedtls_put_unaligned_uint16(ptr noundef %0, i16 noundef zeroext %1) #6 {
  %3 = alloca ptr, align 8
  %4 = alloca i16, align 2
  store ptr %0, ptr %3, align 8, !tbaa !74
  store i16 %1, ptr %4, align 2, !tbaa !71
  %5 = load ptr, ptr %3, align 8, !tbaa !74
  call void @llvm.memcpy.p0.p0.i64(ptr align 1 %5, ptr align 2 %4, i64 2, i1 false)
  ret void
}

; Function Attrs: inlinehint nounwind uwtable
define internal i32 @mbedtls_ssl_chk_buf_ptr(ptr noundef %0, ptr noundef %1, i64 noundef %2) #3 {
  %4 = alloca ptr, align 8
  %5 = alloca ptr, align 8
  %6 = alloca i64, align 8
  store ptr %0, ptr %4, align 8, !tbaa !10
  store ptr %1, ptr %5, align 8, !tbaa !10
  store i64 %2, ptr %6, align 8, !tbaa !12
  %7 = load ptr, ptr %4, align 8, !tbaa !10
  %8 = load ptr, ptr %5, align 8, !tbaa !10
  %9 = icmp ugt ptr %7, %8
  br i1 %9, label %18, label %10

10:                                               ; preds = %3
  %11 = load i64, ptr %6, align 8, !tbaa !12
  %12 = load ptr, ptr %5, align 8, !tbaa !10
  %13 = load ptr, ptr %4, align 8, !tbaa !10
  %14 = ptrtoint ptr %12 to i64
  %15 = ptrtoint ptr %13 to i64
  %16 = sub i64 %14, %15
  %17 = icmp ugt i64 %11, %16
  br label %18

18:                                               ; preds = %10, %3
  %19 = phi i1 [ true, %3 ], [ %17, %10 ]
  %20 = zext i1 %19 to i32
  ret i32 %20
}

; Function Attrs: nounwind uwtable
define internal i32 @ssl_write_hostname_ext(ptr noundef %0, ptr noundef %1, ptr noundef %2, ptr noundef %3) #0 {
  %5 = alloca i32, align 4
  %6 = alloca ptr, align 8
  %7 = alloca ptr, align 8
  %8 = alloca ptr, align 8
  %9 = alloca ptr, align 8
  %10 = alloca ptr, align 8
  %11 = alloca i64, align 8
  %12 = alloca i32, align 4
  store ptr %0, ptr %6, align 8, !tbaa !3
  store ptr %1, ptr %7, align 8, !tbaa !10
  store ptr %2, ptr %8, align 8, !tbaa !10
  store ptr %3, ptr %9, align 8, !tbaa !68
  call void @llvm.lifetime.start.p0(i64 8, ptr %10) #9
  %13 = load ptr, ptr %7, align 8, !tbaa !10
  store ptr %13, ptr %10, align 8, !tbaa !10
  call void @llvm.lifetime.start.p0(i64 8, ptr %11) #9
  %14 = load ptr, ptr %9, align 8, !tbaa !68
  store i64 0, ptr %14, align 8, !tbaa !12
  %15 = load ptr, ptr %6, align 8, !tbaa !3
  %16 = getelementptr inbounds nuw %struct.mbedtls_ssl_context, ptr %15, i32 0, i32 59
  %17 = load ptr, ptr %16, align 8, !tbaa !66
  %18 = icmp eq ptr %17, null
  br i1 %18, label %19, label %20

19:                                               ; preds = %4
  store i32 0, ptr %5, align 4
  store i32 1, ptr %12, align 4
  br label %78

20:                                               ; preds = %4
  %21 = load ptr, ptr %6, align 8, !tbaa !3
  %22 = load ptr, ptr %6, align 8, !tbaa !3
  %23 = getelementptr inbounds nuw %struct.mbedtls_ssl_context, ptr %22, i32 0, i32 59
  %24 = load ptr, ptr %23, align 8, !tbaa !66
  call void (ptr, i32, ptr, i32, ptr, ...) @mbedtls_debug_print_msg(ptr noundef %21, i32 noundef 3, ptr noundef @.str, i32 noundef 42, ptr noundef @.str.20, ptr noundef %24)
  %25 = load ptr, ptr %6, align 8, !tbaa !3
  %26 = getelementptr inbounds nuw %struct.mbedtls_ssl_context, ptr %25, i32 0, i32 59
  %27 = load ptr, ptr %26, align 8, !tbaa !66
  %28 = call i64 @strlen(ptr noundef %27) #10
  store i64 %28, ptr %11, align 8, !tbaa !12
  br label %29

29:                                               ; preds = %20
  %30 = load ptr, ptr %10, align 8, !tbaa !10
  %31 = load ptr, ptr %8, align 8, !tbaa !10
  %32 = load i64, ptr %11, align 8, !tbaa !12
  %33 = add i64 %32, 9
  %34 = call i32 @mbedtls_ssl_chk_buf_ptr(ptr noundef %30, ptr noundef %31, i64 noundef %33)
  %35 = icmp ne i32 %34, 0
  br i1 %35, label %36, label %37

36:                                               ; preds = %29
  store i32 -27136, ptr %5, align 4
  store i32 1, ptr %12, align 4
  br label %78

37:                                               ; preds = %29
  br label %38

38:                                               ; preds = %37
  br label %39

39:                                               ; preds = %38
  %40 = load ptr, ptr %10, align 8, !tbaa !10
  %41 = getelementptr inbounds i8, ptr %40, i64 0
  call void @mbedtls_put_unaligned_uint16(ptr noundef %41, i16 noundef zeroext 0)
  %42 = load ptr, ptr %10, align 8, !tbaa !10
  %43 = getelementptr inbounds i8, ptr %42, i64 2
  store ptr %43, ptr %10, align 8, !tbaa !10
  %44 = load ptr, ptr %10, align 8, !tbaa !10
  %45 = getelementptr inbounds i8, ptr %44, i64 0
  %46 = load i64, ptr %11, align 8, !tbaa !12
  %47 = add i64 %46, 5
  %48 = trunc i64 %47 to i16
  %49 = call i16 @llvm.bswap.i16(i16 %48)
  call void @mbedtls_put_unaligned_uint16(ptr noundef %45, i16 noundef zeroext %49)
  %50 = load ptr, ptr %10, align 8, !tbaa !10
  %51 = getelementptr inbounds i8, ptr %50, i64 2
  store ptr %51, ptr %10, align 8, !tbaa !10
  %52 = load ptr, ptr %10, align 8, !tbaa !10
  %53 = getelementptr inbounds i8, ptr %52, i64 0
  %54 = load i64, ptr %11, align 8, !tbaa !12
  %55 = add i64 %54, 3
  %56 = trunc i64 %55 to i16
  %57 = call i16 @llvm.bswap.i16(i16 %56)
  call void @mbedtls_put_unaligned_uint16(ptr noundef %53, i16 noundef zeroext %57)
  %58 = load ptr, ptr %10, align 8, !tbaa !10
  %59 = getelementptr inbounds i8, ptr %58, i64 2
  store ptr %59, ptr %10, align 8, !tbaa !10
  %60 = load ptr, ptr %10, align 8, !tbaa !10
  %61 = getelementptr inbounds nuw i8, ptr %60, i32 1
  store ptr %61, ptr %10, align 8, !tbaa !10
  store i8 0, ptr %60, align 1, !tbaa !70
  %62 = load ptr, ptr %10, align 8, !tbaa !10
  %63 = getelementptr inbounds i8, ptr %62, i64 0
  %64 = load i64, ptr %11, align 8, !tbaa !12
  %65 = trunc i64 %64 to i16
  %66 = call i16 @llvm.bswap.i16(i16 %65)
  call void @mbedtls_put_unaligned_uint16(ptr noundef %63, i16 noundef zeroext %66)
  %67 = load ptr, ptr %10, align 8, !tbaa !10
  %68 = getelementptr inbounds i8, ptr %67, i64 2
  store ptr %68, ptr %10, align 8, !tbaa !10
  %69 = load ptr, ptr %10, align 8, !tbaa !10
  %70 = load ptr, ptr %6, align 8, !tbaa !3
  %71 = getelementptr inbounds nuw %struct.mbedtls_ssl_context, ptr %70, i32 0, i32 59
  %72 = load ptr, ptr %71, align 8, !tbaa !66
  %73 = load i64, ptr %11, align 8, !tbaa !12
  call void @llvm.memcpy.p0.p0.i64(ptr align 1 %69, ptr align 1 %72, i64 %73, i1 false)
  %74 = load i64, ptr %11, align 8, !tbaa !12
  %75 = add i64 %74, 9
  %76 = load ptr, ptr %9, align 8, !tbaa !68
  store i64 %75, ptr %76, align 8, !tbaa !12
  %77 = load ptr, ptr %6, align 8, !tbaa !3
  call void @mbedtls_ssl_tls13_set_hs_sent_ext_mask(ptr noundef %77, i32 noundef 0)
  store i32 0, ptr %5, align 4
  store i32 1, ptr %12, align 4
  br label %78

78:                                               ; preds = %39, %36, %19
  call void @llvm.lifetime.end.p0(i64 8, ptr %11) #9
  call void @llvm.lifetime.end.p0(i64 8, ptr %10) #9
  %79 = load i32, ptr %5, align 4
  ret i32 %79
}