; Function Attrs: nounwind uwtable
define internal fastcc range(i32 -27136, 1) i32 @ssl_write_hostname_ext(ptr noundef %0, ptr noundef %1, ptr noundef %2, ptr noundef nonnull writeonly captures(none) initializes((0, 8)) %3) unnamed_addr #0 {
  store i64 0, ptr %3, align 8, !tbaa !60
  %5 = getelementptr inbounds nuw i8, ptr %0, i64 432
  %6 = load ptr, ptr %5, align 8, !tbaa !57
  %7 = icmp eq ptr %6, null
  br i1 %7, label %36, label %8

8:                                                ; preds = %4
  tail call void (ptr, i32, ptr, i32, ptr, ...) @mbedtls_debug_print_msg(ptr noundef nonnull %0, i32 noundef 3, ptr noundef nonnull @.str, i32 noundef 42, ptr noundef nonnull @.str.20, ptr noundef nonnull %6) #7
  %9 = load ptr, ptr %5, align 8, !tbaa !57
  %10 = tail call i64 @strlen(ptr noundef nonnull dereferenceable(1) %9) #8
  %11 = add i64 %10, 9
  %12 = icmp ule ptr %1, %2
  %13 = ptrtoint ptr %2 to i64
  %14 = ptrtoint ptr %1 to i64
  %15 = sub i64 %13, %14
  %16 = icmp ule i64 %11, %15
  %narrow.i.not = and i1 %12, %16
  br i1 %narrow.i.not, label %17, label %36

17:                                               ; preds = %8
  store i16 0, ptr %1, align 1
  %18 = getelementptr inbounds nuw i8, ptr %1, i64 2
  %19 = trunc i64 %10 to i16
  %20 = add i16 %19, 5
  %21 = tail call i16 @llvm.bswap.i16(i16 %20)
  store i16 %21, ptr %18, align 1
  %22 = getelementptr inbounds nuw i8, ptr %1, i64 4
  %23 = add i16 %19, 3
  %24 = tail call i16 @llvm.bswap.i16(i16 %23)
  store i16 %24, ptr %22, align 1
  %25 = getelementptr inbounds nuw i8, ptr %1, i64 6
  %26 = getelementptr inbounds nuw i8, ptr %1, i64 7
  store i8 0, ptr %25, align 1, !tbaa !61
  %27 = tail call i16 @llvm.bswap.i16(i16 %19)
  store i16 %27, ptr %26, align 1
  %28 = getelementptr inbounds nuw i8, ptr %1, i64 9
  %29 = load ptr, ptr %5, align 8, !tbaa !57
  tail call void @llvm.memcpy.p0.p0.i64(ptr nonnull align 1 %28, ptr align 1 %29, i64 %10, i1 false)
  store i64 %11, ptr %3, align 8, !tbaa !60
  %30 = tail call i32 @mbedtls_ssl_get_extension_mask(i32 noundef 0) #7
  %31 = getelementptr inbounds nuw i8, ptr %0, i64 112
  %32 = load ptr, ptr %31, align 8, !tbaa !16
  %33 = getelementptr inbounds nuw i8, ptr %32, i64 3272
  %34 = load i32, ptr %33, align 8, !tbaa !69
  %35 = or i32 %34, %30
  store i32 %35, ptr %33, align 8, !tbaa !69
  br label %36

36:                                               ; preds = %8, %4, %17
  %.0 = phi i32 [ 0, %17 ], [ 0, %4 ], [ -27136, %8 ]
  ret i32 %.0
}